; Function Attrs: mustprogress nounwind uwtable
define hidden void @_ZNK13vextractINode4emitEP17C2_MacroAssemblerP13PhaseRegAlloc(ptr noundef nonnull align 8 dereferenceable(104) %0, ptr noundef %1, ptr noundef %2) unnamed_addr #3 align 2 {
  %4 = getelementptr inbounds i8, ptr %0, i64 72
  %5 = getelementptr inbounds i8, ptr %0, i64 80
  %6 = load ptr, ptr %5, align 8
  %7 = load ptr, ptr %6, align 8
  %8 = getelementptr inbounds i8, ptr %7, i64 8
  %9 = load ptr, ptr %8, align 8
  %10 = tail call noundef i32 %9(ptr noundef nonnull align 8 dereferenceable(8) %6) #23
  %11 = add i32 %10, 1
  %12 = getelementptr inbounds i8, ptr %0, i64 88
  %13 = load ptr, ptr %12, align 8
  %14 = load ptr, ptr %13, align 8
  %15 = getelementptr inbounds i8, ptr %14, i64 8
  %16 = load ptr, ptr %15, align 8
  %17 = tail call noundef i32 %16(ptr noundef nonnull align 8 dereferenceable(8) %13) #23
  %18 = add i32 %11, %17
  %19 = load ptr, ptr %5, align 8
  %20 = tail call noundef zeroext i8 @_ZN7Matcher25vector_element_basic_typeEPK8MachNodePK8MachOper(ptr noundef nonnull %0, ptr noundef %19) #23
  %21 = getelementptr inbounds i8, ptr %0, i64 96
  %22 = load ptr, ptr %21, align 8
  %23 = load ptr, ptr %22, align 8
  %24 = getelementptr inbounds i8, ptr %23, i64 40
  %25 = load ptr, ptr %24, align 8
  %26 = tail call noundef i32 %25(ptr noundef nonnull align 8 dereferenceable(8) %22, ptr noundef %2, ptr noundef nonnull %0, i32 noundef %18) #23
  %or.cond.i.i = icmp ult i32 %26, 32
  %spec.select.i.i = select i1 %or.cond.i.i, i32 %26, i32 -1
  %27 = load ptr, ptr %5, align 8
  %28 = load ptr, ptr %27, align 8
  %29 = getelementptr inbounds i8, ptr %28, i64 40
  %30 = load ptr, ptr %29, align 8
  %31 = tail call noundef i32 %30(ptr noundef nonnull align 8 dereferenceable(8) %27, ptr noundef %2, ptr noundef nonnull %0, i32 noundef 1) #23
  %or.cond.i.i15 = icmp ult i32 %31, 32
  %spec.select.i.i16 = select i1 %or.cond.i.i15, i32 %31, i32 -1
  %32 = load ptr, ptr %12, align 8
  %33 = load ptr, ptr %32, align 8
  %34 = getelementptr inbounds i8, ptr %33, i64 48
  %35 = load ptr, ptr %34, align 8
  %36 = tail call noundef i64 %35(ptr noundef nonnull align 8 dereferenceable(8) %32) #23
  %37 = trunc i64 %36 to i32
  %38 = tail call i32 @_ZN17C2_MacroAssembler8get_laneE9BasicType11XMMRegisterS1_i(ptr noundef nonnull align 8 dereferenceable(40) %1, i8 noundef zeroext %20, i32 %spec.select.i.i, i32 %spec.select.i.i16, i32 noundef %37) #23
  %39 = load ptr, ptr %4, align 8
  %40 = load ptr, ptr %39, align 8
  %41 = getelementptr inbounds i8, ptr %40, i64 32
  %42 = load ptr, ptr %41, align 8
  %43 = tail call noundef i32 %42(ptr noundef nonnull align 8 dereferenceable(8) %39, ptr noundef %2, ptr noundef nonnull %0) #23
  %or.cond.i.i17 = icmp ult i32 %43, 32
  %spec.select.i.i18 = select i1 %or.cond.i.i17, i32 %43, i32 -1
  %44 = load ptr, ptr %12, align 8
  %45 = load ptr, ptr %44, align 8
  %46 = getelementptr inbounds i8, ptr %45, i64 48
  %47 = load ptr, ptr %46, align 8
  %48 = tail call noundef i64 %47(ptr noundef nonnull align 8 dereferenceable(8) %44) #23
  %49 = trunc i64 %48 to i32
  tail call void @_ZN17C2_MacroAssembler8get_elemE9BasicType8Register11XMMRegisteri(ptr noundef nonnull align 8 dereferenceable(40) %1, i8 noundef zeroext %20, i32 %spec.select.i.i18, i32 %38, i32 noundef %49) #23
  ret void
}